target datalayout = "e-m:e-p270:32:32-p271:32:32-p272:64:64-i64:64-i128:128-f80:128-n8:16:32:64-S128"
target triple = "x86_64-pc-linux-gnu"

%struct._ir_array = type { ptr, i32 }

; Function Attrs: nounwind uwtable
define hidden void @ir_array_remove(ptr noundef %0, i32 noundef %1) #0 {
  %3 = alloca ptr, align 8
  %4 = alloca i32, align 4
  store ptr %0, ptr %3, align 8
  store i32 %1, ptr %4, align 4
  %5 = load ptr, ptr %3, align 8
  %6 = getelementptr inbounds %struct._ir_array, ptr %5, i32 0, i32 0
  %7 = load ptr, ptr %6, align 8
  %8 = load i32, ptr %4, align 4
  %9 = zext i32 %8 to i64
  %10 = getelementptr inbounds i32, ptr %7, i64 %9
  %11 = load ptr, ptr %3, align 8
  %12 = getelementptr inbounds %struct._ir_array, ptr %11, i32 0, i32 0
  %13 = load ptr, ptr %12, align 8
  %14 = load i32, ptr %4, align 4
  %15 = zext i32 %14 to i64
  %16 = getelementptr inbounds i32, ptr %13, i64 %15
  %17 = getelementptr inbounds i32, ptr %16, i64 1
  %18 = load ptr, ptr %3, align 8
  %19 = getelementptr inbounds %struct._ir_array, ptr %18, i32 0, i32 1
  %20 = load i32, ptr %19, align 8
  %21 = load i32, ptr %4, align 4
  %22 = sub i32 %20, %21
  %23 = sub i32 %22, 1
  %24 = zext i32 %23 to i64
  %25 = mul i64 %24, 4
  call void @llvm.memmove.p0.p0.i64(ptr align 4 %10, ptr align 4 %17, i64 %25, i1 false)
  %26 = load ptr, ptr %3, align 8
  %27 = getelementptr inbounds %struct._ir_array, ptr %26, i32 0, i32 0
  %28 = load ptr, ptr %27, align 8
  %29 = load ptr, ptr %3, align 8
  %30 = getelementptr inbounds %struct._ir_array, ptr %29, i32 0, i32 1
  %31 = load i32, ptr %30, align 8
  %32 = sub i32 %31, 1
  %33 = zext i32 %32 to i64
  %34 = getelementptr inbounds i32, ptr %28, i64 %33
  store i32 0, ptr %34, align 4
  ret void
}