; Function Attrs: mustprogress nofree norecurse nosync nounwind willreturn memory(readwrite, inaccessiblemem: none) uwtable
define hidden void @ir_array_remove(ptr nocapture noundef readonly %0, i32 noundef %1) local_unnamed_addr #15 {
  %3 = load ptr, ptr %0, align 8
  %4 = zext i32 %1 to i64
  %5 = getelementptr inbounds i32, ptr %3, i64 %4
  %6 = getelementptr inbounds i8, ptr %5, i64 4
  %7 = getelementptr inbounds i8, ptr %0, i64 8
  %8 = load i32, ptr %7, align 8
  %9 = xor i32 %1, -1
  %10 = add i32 %8, %9
  %11 = zext i32 %10 to i64
  %12 = shl nuw nsw i64 %11, 2
  tail call void @llvm.memmove.p0.p0.i64(ptr align 4 %5, ptr nonnull align 4 %6, i64 %12, i1 false)
  %13 = load ptr, ptr %0, align 8
  %14 = load i32, ptr %7, align 8
  %15 = add i32 %14, -1
  %16 = zext i32 %15 to i64
  %17 = getelementptr inbounds i32, ptr %13, i64 %16
  store i32 0, ptr %17, align 4
  ret void
}